; Function Attrs: mustprogress nounwind uwtable
define internal void @"_ZNSt6thread11_State_implINS_8_InvokerISt5tupleIJZN6spdlog7details11thread_poolC1EmmSt8functionIFvvEES8_E3$_0EEEEED0Ev"(ptr noundef nonnull align 8 dereferenceable(80) %this) unnamed_addr #2 align 2 personality ptr @__gxx_personality_v0 {
entry:
  store ptr getelementptr inbounds ({ [5 x ptr] }, ptr @"_ZTVNSt6thread11_State_implINS_8_InvokerISt5tupleIJZN6spdlog7details11thread_poolC1EmmSt8functionIFvvEES8_E3$_0EEEEEE", i64 0, i32 0, i64 2), ptr %this, align 8
  %_M_manager.i.i.i.i.i.i.i.i = getelementptr inbounds i8, ptr %this, i64 64
  %0 = load ptr, ptr %_M_manager.i.i.i.i.i.i.i.i, align 8
  %tobool.not.i.i.i.i.i.i.i.i = icmp eq ptr %0, null
  br i1 %tobool.not.i.i.i.i.i.i.i.i, label %_ZNSt8functionIFvvEED2Ev.exit.i.i.i.i.i.i, label %if.then.i.i.i.i.i.i.i.i

if.then.i.i.i.i.i.i.i.i:                          ; preds = %entry
  %1 = getelementptr inbounds i8, ptr %this, i64 48
  %call.i.i.i.i.i.i.i.i = invoke noundef zeroext i1 %0(ptr noundef nonnull align 8 dereferenceable(16) %1, ptr noundef nonnull align 8 dereferenceable(16) %1, i32 noundef 3)
          to label %_ZNSt8functionIFvvEED2Ev.exit.i.i.i.i.i.i unwind label %terminate.lpad.i.i.i.i.i.i.i.i

terminate.lpad.i.i.i.i.i.i.i.i:                   ; preds = %if.then.i.i.i.i.i.i.i.i
  %2 = landingpad { ptr, i32 }
          catch ptr null
  %3 = extractvalue { ptr, i32 } %2, 0
  tail call void @__clang_call_terminate(ptr %3) #20
  unreachable

_ZNSt8functionIFvvEED2Ev.exit.i.i.i.i.i.i:        ; preds = %if.then.i.i.i.i.i.i.i.i, %entry
  %_M_manager.i.i1.i.i.i.i.i.i = getelementptr inbounds i8, ptr %this, i64 32
  %4 = load ptr, ptr %_M_manager.i.i1.i.i.i.i.i.i, align 8
  %tobool.not.i.i2.i.i.i.i.i.i = icmp eq ptr %4, null
  br i1 %tobool.not.i.i2.i.i.i.i.i.i, label %"_ZNSt6thread11_State_implINS_8_InvokerISt5tupleIJZN6spdlog7details11thread_poolC1EmmSt8functionIFvvEES8_E3$_0EEEEED2Ev.exit", label %if.then.i.i3.i.i.i.i.i.i

if.then.i.i3.i.i.i.i.i.i:                         ; preds = %_ZNSt8functionIFvvEED2Ev.exit.i.i.i.i.i.i
  %5 = getelementptr inbounds i8, ptr %this, i64 16
  %call.i.i4.i.i.i.i.i.i = invoke noundef zeroext i1 %4(ptr noundef nonnull align 8 dereferenceable(16) %5, ptr noundef nonnull align 8 dereferenceable(16) %5, i32 noundef 3)
          to label %"_ZNSt6thread11_State_implINS_8_InvokerISt5tupleIJZN6spdlog7details11thread_poolC1EmmSt8functionIFvvEES8_E3$_0EEEEED2Ev.exit" unwind label %terminate.lpad.i.i5.i.i.i.i.i.i

terminate.lpad.i.i5.i.i.i.i.i.i:                  ; preds = %if.then.i.i3.i.i.i.i.i.i
  %6 = landingpad { ptr, i32 }
          catch ptr null
  %7 = extractvalue { ptr, i32 } %6, 0
  tail call void @__clang_call_terminate(ptr %7) #20
  unreachable

"_ZNSt6thread11_State_implINS_8_InvokerISt5tupleIJZN6spdlog7details11thread_poolC1EmmSt8functionIFvvEES8_E3$_0EEEEED2Ev.exit": ; preds = %_ZNSt8functionIFvvEED2Ev.exit.i.i.i.i.i.i, %if.then.i.i3.i.i.i.i.i.i
  tail call void @_ZNSt6thread6_StateD2Ev(ptr noundef nonnull align 8 dereferenceable(8) %this) #18
  tail call void @_ZdlPv(ptr noundef nonnull %this) #21
  ret void
}